target datalayout = "e-m:e-p270:32:32-p271:32:32-p272:64:64-i64:64-i128:128-f80:128-n8:16:32:64-S128"
target triple = "x86_64-pc-linux-gnu"

%"class.clang::Decl.base" = type <{ ptr, %"class.llvm::PointerIntPair.337", %"class.llvm::PointerUnion", %"class.clang::SourceLocation", i32, i8 }>
%"class.llvm::PointerIntPair.337" = type { %"struct.llvm::detail::PunnedPointer.338" }
%"struct.llvm::detail::PunnedPointer.338" = type { [8 x i8] }
%"class.llvm::PointerUnion" = type { %"class.llvm::pointer_union_detail::PointerUnionMembers" }
%"class.llvm::pointer_union_detail::PointerUnionMembers" = type { %"class.llvm::pointer_union_detail::PointerUnionMembers.339" }
%"class.llvm::pointer_union_detail::PointerUnionMembers.339" = type { %"class.llvm::pointer_union_detail::PointerUnionMembers.340" }
%"class.llvm::pointer_union_detail::PointerUnionMembers.340" = type { %"class.llvm::PointerIntPair.341" }
%"class.llvm::PointerIntPair.341" = type { %"struct.llvm::detail::PunnedPointer.342" }
%"struct.llvm::detail::PunnedPointer.342" = type { [8 x i8] }
%"class.clang::SourceLocation" = type { i32 }
%"class.clang::CXXRecordDecl" = type { %"class.clang::RecordDecl", ptr, %"class.llvm::PointerUnion.358" }
%"class.clang::RecordDecl" = type { %"class.clang::TagDecl" }
%"class.clang::TagDecl" = type { %"class.clang::TypeDecl.base", %"class.clang::DeclContext", %"class.clang::Redeclarable", %"class.clang::SourceRange", %"class.llvm::PointerUnion.353" }
%"class.clang::TypeDecl.base" = type <{ %"class.clang::NamedDecl", ptr, %"class.clang::SourceLocation" }>
%"class.clang::NamedDecl" = type { %"class.clang::Decl.base", %"class.clang::DeclarationName" }
%"class.clang::DeclarationName" = type { i64 }
%"class.clang::DeclContext" = type { ptr, %union.anon.347, ptr, ptr }
%union.anon.347 = type { %"class.clang::DeclContext::RecordDeclBitfields" }
%"class.clang::DeclContext::RecordDeclBitfields" = type { i64 }
%"class.clang::Redeclarable" = type { %"class.clang::Redeclarable<clang::TagDecl>::DeclLink", ptr }
%"class.clang::Redeclarable<clang::TagDecl>::DeclLink" = type { %"class.llvm::PointerUnion.348" }
%"class.llvm::PointerUnion.348" = type { %"class.llvm::pointer_union_detail::PointerUnionMembers.349" }
%"class.llvm::pointer_union_detail::PointerUnionMembers.349" = type { %"class.llvm::pointer_union_detail::PointerUnionMembers.350" }
%"class.llvm::pointer_union_detail::PointerUnionMembers.350" = type { %"class.llvm::pointer_union_detail::PointerUnionMembers.351" }
%"class.llvm::pointer_union_detail::PointerUnionMembers.351" = type { %"class.llvm::PointerIntPair.352" }
%"class.llvm::PointerIntPair.352" = type { %"struct.llvm::detail::PunnedPointer.342" }
%"class.clang::SourceRange" = type { %"class.clang::SourceLocation", %"class.clang::SourceLocation" }
%"class.llvm::PointerUnion.353" = type { %"class.llvm::pointer_union_detail::PointerUnionMembers.354" }
%"class.llvm::pointer_union_detail::PointerUnionMembers.354" = type { %"class.llvm::pointer_union_detail::PointerUnionMembers.355" }
%"class.llvm::pointer_union_detail::PointerUnionMembers.355" = type { %"class.llvm::pointer_union_detail::PointerUnionMembers.356" }
%"class.llvm::pointer_union_detail::PointerUnionMembers.356" = type { %"class.llvm::PointerIntPair.357" }
%"class.llvm::PointerIntPair.357" = type { %"struct.llvm::detail::PunnedPointer.342" }
%"class.llvm::PointerUnion.358" = type { %"class.llvm::pointer_union_detail::PointerUnionMembers.359" }
%"class.llvm::pointer_union_detail::PointerUnionMembers.359" = type { %"class.llvm::pointer_union_detail::PointerUnionMembers.360" }
%"class.llvm::pointer_union_detail::PointerUnionMembers.360" = type { %"class.llvm::pointer_union_detail::PointerUnionMembers.361" }
%"class.llvm::pointer_union_detail::PointerUnionMembers.361" = type { %"class.llvm::PointerIntPair.362" }
%"class.llvm::PointerIntPair.362" = type { %"struct.llvm::detail::PunnedPointer.342" }

; Function Attrs: mustprogress nounwind uwtable
define linkonce_odr hidden noundef nonnull align 8 dereferenceable(8) ptr @_ZN4llvm6detail13PunnedPointerIPvEaSEl(ptr noundef nonnull align 8 dereferenceable(8) %0, i64 noundef %1) #0 comdat align 2 {
  %3 = alloca ptr, align 8
  %4 = alloca i64, align 8
  store ptr %0, ptr %3, align 8
  store i64 %1, ptr %4, align 8
  %5 = load ptr, ptr %3, align 8
  %6 = getelementptr inbounds nuw %"struct.llvm::detail::PunnedPointer.342", ptr %5, i32 0, i32 0
  %7 = getelementptr inbounds [8 x i8], ptr %6, i64 0, i64 0
  call void @llvm.memcpy.p0.p0.i64(ptr align 8 %7, ptr align 8 %4, i64 8, i1 false)
  ret ptr %5
}

; Function Attrs: mustprogress nounwind uwtable
define linkonce_odr hidden void @_ZN4llvm6detail13PunnedPointerIPvEC2El(ptr noundef nonnull align 8 dereferenceable(8) %0, i64 noundef %1) unnamed_addr #0 comdat align 2 {
  %3 = alloca ptr, align 8
  %4 = alloca i64, align 8
  store ptr %0, ptr %3, align 8
  store i64 %1, ptr %4, align 8
  %5 = load ptr, ptr %3, align 8
  %6 = load i64, ptr %4, align 8
  %7 = call noundef nonnull align 8 dereferenceable(8) ptr @_ZN4llvm6detail13PunnedPointerIPvEaSEl(ptr noundef nonnull align 8 dereferenceable(8) %5, i64 noundef %6)
  ret void
}

; Function Attrs: mustprogress nounwind uwtable
define linkonce_odr hidden void @_ZN4llvm14PointerIntPairIPvLj1EiNS_20pointer_union_detail22PointerUnionUIntTraitsIJPN5clang17ClassTemplateDeclEPNS4_24MemberSpecializationInfoEEEENS_18PointerIntPairInfoIS1_Lj1ES9_EEEC2Ev(ptr noundef nonnull align 8 dereferenceable(8) %0) unnamed_addr #0 comdat align 2 {
  %2 = alloca ptr, align 8
  store ptr %0, ptr %2, align 8
  %3 = load ptr, ptr %2, align 8
  %4 = getelementptr inbounds nuw %"class.llvm::PointerIntPair.362", ptr %3, i32 0, i32 0
  call void @_ZN4llvm6detail13PunnedPointerIPvEC2El(ptr noundef nonnull align 8 dereferenceable(8) %4, i64 noundef 0)
  ret void
}

; Function Attrs: mustprogress nounwind uwtable
define linkonce_odr hidden void @_ZN4llvm20pointer_union_detail19PointerUnionMembersINS_12PointerUnionIJPN5clang17ClassTemplateDeclEPNS3_24MemberSpecializationInfoEEEENS_14PointerIntPairIPvLj1EiNS0_22PointerUnionUIntTraitsIJS5_S7_EEENS_18PointerIntPairInfoISA_Lj1ESC_EEEELi2EJEEC2Ev(ptr noundef nonnull align 8 dereferenceable(8) %0) unnamed_addr #0 comdat align 2 {
  %2 = alloca ptr, align 8
  store ptr %0, ptr %2, align 8
  %3 = load ptr, ptr %2, align 8
  %4 = getelementptr inbounds nuw %"class.llvm::pointer_union_detail::PointerUnionMembers.361", ptr %3, i32 0, i32 0
  call void @_ZN4llvm14PointerIntPairIPvLj1EiNS_20pointer_union_detail22PointerUnionUIntTraitsIJPN5clang17ClassTemplateDeclEPNS4_24MemberSpecializationInfoEEEENS_18PointerIntPairInfoIS1_Lj1ES9_EEEC2Ev(ptr noundef nonnull align 8 dereferenceable(8) %4)
  ret void
}

; Function Attrs: mustprogress nounwind uwtable
define linkonce_odr hidden void @_ZN4llvm20pointer_union_detail19PointerUnionMembersINS_12PointerUnionIJPN5clang17ClassTemplateDeclEPNS3_24MemberSpecializationInfoEEEENS_14PointerIntPairIPvLj1EiNS0_22PointerUnionUIntTraitsIJS5_S7_EEENS_18PointerIntPairInfoISA_Lj1ESC_EEEELi1EJS7_EEC2Ev(ptr noundef nonnull align 8 dereferenceable(8) %0) unnamed_addr #0 comdat align 2 {
  %2 = alloca ptr, align 8
  store ptr %0, ptr %2, align 8
  %3 = load ptr, ptr %2, align 8
  call void @_ZN4llvm20pointer_union_detail19PointerUnionMembersINS_12PointerUnionIJPN5clang17ClassTemplateDeclEPNS3_24MemberSpecializationInfoEEEENS_14PointerIntPairIPvLj1EiNS0_22PointerUnionUIntTraitsIJS5_S7_EEENS_18PointerIntPairInfoISA_Lj1ESC_EEEELi2EJEEC2Ev(ptr noundef nonnull align 8 dereferenceable(8) %3)
  ret void
}

; Function Attrs: mustprogress nounwind uwtable
define linkonce_odr hidden void @_ZN4llvm20pointer_union_detail19PointerUnionMembersINS_12PointerUnionIJPN5clang17ClassTemplateDeclEPNS3_24MemberSpecializationInfoEEEENS_14PointerIntPairIPvLj1EiNS0_22PointerUnionUIntTraitsIJS5_S7_EEENS_18PointerIntPairInfoISA_Lj1ESC_EEEELi0EJS5_S7_EEC2Ev(ptr noundef nonnull align 8 dereferenceable(8) %0) unnamed_addr #0 comdat align 2 {
  %2 = alloca ptr, align 8
  store ptr %0, ptr %2, align 8
  %3 = load ptr, ptr %2, align 8
  call void @_ZN4llvm20pointer_union_detail19PointerUnionMembersINS_12PointerUnionIJPN5clang17ClassTemplateDeclEPNS3_24MemberSpecializationInfoEEEENS_14PointerIntPairIPvLj1EiNS0_22PointerUnionUIntTraitsIJS5_S7_EEENS_18PointerIntPairInfoISA_Lj1ESC_EEEELi1EJS7_EEC2Ev(ptr noundef nonnull align 8 dereferenceable(8) %3)
  ret void
}

; Function Attrs: mustprogress nounwind uwtable
define linkonce_odr hidden void @_ZN4llvm12PointerUnionIJPN5clang17ClassTemplateDeclEPNS1_24MemberSpecializationInfoEEEC2Ev(ptr noundef nonnull align 8 dereferenceable(8) %0) unnamed_addr #0 comdat align 2 {
  %2 = alloca ptr, align 8
  store ptr %0, ptr %2, align 8
  %3 = load ptr, ptr %2, align 8
  call void @_ZN4llvm20pointer_union_detail19PointerUnionMembersINS_12PointerUnionIJPN5clang17ClassTemplateDeclEPNS3_24MemberSpecializationInfoEEEENS_14PointerIntPairIPvLj1EiNS0_22PointerUnionUIntTraitsIJS5_S7_EEENS_18PointerIntPairInfoISA_Lj1ESC_EEEELi0EJS5_S7_EEC2Ev(ptr noundef nonnull align 8 dereferenceable(8) %3)
  ret void
}

; Function Attrs: mustprogress nounwind uwtable
define dso_local void @_ZN5clang13CXXRecordDeclC2ENS_4Decl4KindENS_11TagTypeKindERKNS_10ASTContextEPNS_11DeclContextENS_14SourceLocationES9_PNS_14IdentifierInfoEPS0_(ptr noundef nonnull align 8 dereferenceable(144) %0, i32 noundef %1, i32 noundef %2, ptr noundef nonnull align 8 dereferenceable(23096) %3, ptr noundef %4, i32 %5, i32 %6, ptr noundef %7, ptr noundef %8) unnamed_addr #0 align 2 {
  %10 = alloca %"class.clang::SourceLocation", align 4
  %11 = alloca %"class.clang::SourceLocation", align 4
  %12 = alloca ptr, align 8
  %13 = alloca i32, align 4
  %14 = alloca i32, align 4
  %15 = alloca ptr, align 8
  %16 = alloca ptr, align 8
  %17 = alloca ptr, align 8
  %18 = alloca ptr, align 8
  %19 = alloca %"class.clang::SourceLocation", align 4
  %20 = alloca %"class.clang::SourceLocation", align 4
  %21 = getelementptr inbounds nuw %"class.clang::SourceLocation", ptr %10, i32 0, i32 0
  store i32 %5, ptr %21, align 4
  %22 = getelementptr inbounds nuw %"class.clang::SourceLocation", ptr %11, i32 0, i32 0
  store i32 %6, ptr %22, align 4
  store ptr %0, ptr %12, align 8
  store i32 %1, ptr %13, align 4
  store i32 %2, ptr %14, align 4
  store ptr %3, ptr %15, align 8
  store ptr %4, ptr %16, align 8
  store ptr %7, ptr %17, align 8
  store ptr %8, ptr %18, align 8
  %23 = load ptr, ptr %12, align 8
  %24 = load i32, ptr %13, align 4
  %25 = load i32, ptr %14, align 4
  %26 = load ptr, ptr %15, align 8
  %27 = load ptr, ptr %16, align 8
  call void @llvm.memcpy.p0.p0.i64(ptr align 4 %19, ptr align 4 %10, i64 4, i1 false)
  call void @llvm.memcpy.p0.p0.i64(ptr align 4 %20, ptr align 4 %11, i64 4, i1 false)
  %28 = load ptr, ptr %17, align 8
  %29 = load ptr, ptr %18, align 8
  %30 = getelementptr inbounds nuw %"class.clang::SourceLocation", ptr %19, i32 0, i32 0
  %31 = load i32, ptr %30, align 4
  %32 = getelementptr inbounds nuw %"class.clang::SourceLocation", ptr %20, i32 0, i32 0
  %33 = load i32, ptr %32, align 4
  call void @_ZN5clang10RecordDeclC2ENS_4Decl4KindENS_11TagTypeKindERKNS_10ASTContextEPNS_11DeclContextENS_14SourceLocationES9_PNS_14IdentifierInfoEPS0_(ptr noundef nonnull align 8 dereferenceable(128) %23, i32 noundef %24, i32 noundef %25, ptr noundef nonnull align 8 dereferenceable(23096) %26, ptr noundef %27, i32 %31, i32 %33, ptr noundef %28, ptr noundef %29)
  store ptr getelementptr inbounds inrange(-16, 112) ({ [16 x ptr] }, ptr @_ZTVN5clang13CXXRecordDeclE, i32 0, i32 0, i32 2), ptr %23, align 8
  %34 = getelementptr inbounds nuw %"class.clang::CXXRecordDecl", ptr %23, i32 0, i32 1
  %35 = load ptr, ptr %18, align 8
  %36 = icmp ne ptr %35, null
  br i1 %36, label %37, label %41

37:                                               ; preds = %9
  %38 = load ptr, ptr %18, align 8
  %39 = getelementptr inbounds nuw %"class.clang::CXXRecordDecl", ptr %38, i32 0, i32 1
  %40 = load ptr, ptr %39, align 8
  br label %42

41:                                               ; preds = %9
  br label %42

42:                                               ; preds = %41, %37
  %43 = phi ptr [ %40, %37 ], [ null, %41 ]
  store ptr %43, ptr %34, align 8
  %44 = getelementptr inbounds nuw %"class.clang::CXXRecordDecl", ptr %23, i32 0, i32 2
  call void @_ZN4llvm12PointerUnionIJPN5clang17ClassTemplateDeclEPNS1_24MemberSpecializationInfoEEEC2Ev(ptr noundef nonnull align 8 dereferenceable(8) %44)
  ret void
}