; Function Attrs: mustprogress nounwind uwtable
define dso_local void @_ZN5clang13CXXRecordDeclC2ENS_4Decl4KindENS_11TagTypeKindERKNS_10ASTContextEPNS_11DeclContextENS_14SourceLocationES9_PNS_14IdentifierInfoEPS0_(ptr noundef nonnull align 8 dereferenceable(144) %0, i32 noundef %1, i32 noundef %2, ptr noundef nonnull align 8 dereferenceable(23096) %3, ptr noundef %4, i32 %5, i32 %6, ptr noundef %7, ptr noundef %8) unnamed_addr #1 align 2 {
  tail call void @_ZN5clang10RecordDeclC2ENS_4Decl4KindENS_11TagTypeKindERKNS_10ASTContextEPNS_11DeclContextENS_14SourceLocationES9_PNS_14IdentifierInfoEPS0_(ptr noundef nonnull align 8 dereferenceable(128) %0, i32 noundef %1, i32 noundef %2, ptr noundef nonnull align 8 dereferenceable(23096) %3, ptr noundef %4, i32 %5, i32 %6, ptr noundef %7, ptr noundef %8) #25
  store ptr getelementptr inbounds nuw inrange(-16, 112) (i8, ptr @_ZTVN5clang13CXXRecordDeclE, i64 16), ptr %0, align 8
  %.not = icmp eq ptr %8, null
  br i1 %.not, label %13, label %10

10:                                               ; preds = %9
  %11 = getelementptr inbounds nuw i8, ptr %8, i64 128
  %12 = load ptr, ptr %11, align 8
  br label %13

13:                                               ; preds = %9, %10
  %14 = phi ptr [ %12, %10 ], [ null, %9 ]
  %15 = getelementptr inbounds nuw i8, ptr %0, i64 128
  store ptr %14, ptr %15, align 8
  %16 = getelementptr inbounds nuw i8, ptr %0, i64 136
  store i64 0, ptr %16, align 8
  ret void
}